; Function Attrs: mustprogress uwtable
define hidden void @_ZN13simple_parser7add_varERK6symbolP3var(ptr noundef nonnull align 8 dereferenceable(80) %0, ptr noundef nonnull readonly align 8 captures(none) dereferenceable(8) %1, ptr noundef %2) local_unnamed_addr #3 align 2 {
  %4 = alloca %struct._key_data, align 8
  %5 = getelementptr inbounds nuw i8, ptr %0, i64 40
  call void @llvm.lifetime.start.p0(i64 16, ptr nonnull %4) #20
  %6 = load i64, ptr %1, align 8, !tbaa !33
  store i64 %6, ptr %4, align 8, !tbaa !33
  %7 = getelementptr inbounds nuw i8, ptr %4, i64 8
  store ptr %2, ptr %7, align 8, !tbaa !35
  call void @_ZN14core_hashtableI17default_map_entryI6symbolP3varEN9table2mapIS4_16symbol_hash_proc14symbol_eq_procE15entry_hash_procENS8_13entry_eq_procEE6insertEO9_key_dataIS1_S3_E(ptr noundef nonnull align 8 dereferenceable(24) %5, ptr noundef nonnull align 8 dereferenceable(16) %4)
  call void @llvm.lifetime.end.p0(i64 16, ptr nonnull %4) #20
  ret void
}